target datalayout = "e-m:e-p270:32:32-p271:32:32-p272:64:64-i64:64-i128:128-f80:128-n8:16:32:64-S128"
target triple = "x86_64-pc-linux-gnu"

%struct.Constraint = type <{ ptr, ptr, double, double, i64, i8, i8, [6 x i8] }>

@_ZN5BlockC1EP8Variable = unnamed_addr alias void (ptr, ptr), ptr @_ZN5BlockC2EP8Variable

; Function Attrs: mustprogress uwtable
define void @_ZN5Block5splitERPS_S1_P10Constraint(ptr noundef nonnull align 8 dereferenceable(112) %0, ptr noundef nonnull align 8 dereferenceable(8) %1, ptr noundef nonnull align 8 dereferenceable(8) %2, ptr noundef %3) #4 align 2 personality ptr @__gxx_personality_v0 {
  %5 = alloca ptr, align 8
  %6 = alloca ptr, align 8
  %7 = alloca ptr, align 8
  %8 = alloca ptr, align 8
  %9 = alloca ptr, align 8
  %10 = alloca i32, align 4
  store ptr %0, ptr %5, align 8, !tbaa !3
  store ptr %1, ptr %6, align 8, !tbaa !81
  store ptr %2, ptr %7, align 8, !tbaa !81
  store ptr %3, ptr %8, align 8, !tbaa !53
  %11 = load ptr, ptr %5, align 8
  %12 = load ptr, ptr %8, align 8, !tbaa !53
  %13 = getelementptr inbounds nuw %struct.Constraint, ptr %12, i32 0, i32 5
  store i8 0, ptr %13, align 8, !tbaa !67
  %14 = call noalias noundef nonnull ptr @_Znwm(i64 noundef 112) #18
  invoke void @_ZN5BlockC1EP8Variable(ptr noundef nonnull align 8 dereferenceable(112) %14, ptr noundef null)
          to label %15 unwind label %36

15:                                               ; preds = %4
  %16 = load ptr, ptr %6, align 8, !tbaa !81
  store ptr %14, ptr %16, align 8, !tbaa !3
  %17 = load ptr, ptr %6, align 8, !tbaa !81
  %18 = load ptr, ptr %17, align 8, !tbaa !3
  %19 = load ptr, ptr %8, align 8, !tbaa !53
  %20 = getelementptr inbounds nuw %struct.Constraint, ptr %19, i32 0, i32 0
  %21 = load ptr, ptr %20, align 8, !tbaa !58
  %22 = load ptr, ptr %8, align 8, !tbaa !53
  %23 = getelementptr inbounds nuw %struct.Constraint, ptr %22, i32 0, i32 1
  %24 = load ptr, ptr %23, align 8, !tbaa !59
  call void @_ZN5Block18populateSplitBlockEPS_P8VariableS2_(ptr noundef nonnull align 8 dereferenceable(112) %11, ptr noundef %18, ptr noundef %21, ptr noundef %24)
  %25 = call noalias noundef nonnull ptr @_Znwm(i64 noundef 112) #18
  invoke void @_ZN5BlockC1EP8Variable(ptr noundef nonnull align 8 dereferenceable(112) %25, ptr noundef null)
          to label %26 unwind label %40

26:                                               ; preds = %15
  %27 = load ptr, ptr %7, align 8, !tbaa !81
  store ptr %25, ptr %27, align 8, !tbaa !3
  %28 = load ptr, ptr %7, align 8, !tbaa !81
  %29 = load ptr, ptr %28, align 8, !tbaa !3
  %30 = load ptr, ptr %8, align 8, !tbaa !53
  %31 = getelementptr inbounds nuw %struct.Constraint, ptr %30, i32 0, i32 1
  %32 = load ptr, ptr %31, align 8, !tbaa !59
  %33 = load ptr, ptr %8, align 8, !tbaa !53
  %34 = getelementptr inbounds nuw %struct.Constraint, ptr %33, i32 0, i32 0
  %35 = load ptr, ptr %34, align 8, !tbaa !58
  call void @_ZN5Block18populateSplitBlockEPS_P8VariableS2_(ptr noundef nonnull align 8 dereferenceable(112) %11, ptr noundef %29, ptr noundef %32, ptr noundef %35)
  ret void

36:                                               ; preds = %4
  %37 = landingpad { ptr, i32 }
          cleanup
  %38 = extractvalue { ptr, i32 } %37, 0
  store ptr %38, ptr %9, align 8
  %39 = extractvalue { ptr, i32 } %37, 1
  store i32 %39, ptr %10, align 4
  call void @_ZdlPvm(ptr noundef %14, i64 noundef 112) #19
  br label %44

40:                                               ; preds = %15
  %41 = landingpad { ptr, i32 }
          cleanup
  %42 = extractvalue { ptr, i32 } %41, 0
  store ptr %42, ptr %9, align 8
  %43 = extractvalue { ptr, i32 } %41, 1
  store i32 %43, ptr %10, align 4
  call void @_ZdlPvm(ptr noundef %25, i64 noundef 112) #19
  br label %44

44:                                               ; preds = %40, %36
  %45 = load ptr, ptr %9, align 8
  %46 = load i32, ptr %10, align 4
  %47 = insertvalue { ptr, i32 } poison, ptr %45, 0
  %48 = insertvalue { ptr, i32 } %47, i32 %46, 1
  resume { ptr, i32 } %48
}