; Function Attrs: mustprogress uwtable
define void @_ZN5Block5splitERPS_S1_P10Constraint(ptr noundef nonnull align 8 dereferenceable(112) %0, ptr noundef nonnull writeonly align 8 captures(none) dereferenceable(8) %1, ptr noundef nonnull writeonly align 8 captures(none) dereferenceable(8) %2, ptr noundef captures(none) initializes((40, 41)) %3) local_unnamed_addr #3 align 2 personality ptr @__gxx_personality_v0 {
  %5 = getelementptr inbounds nuw i8, ptr %3, i64 40
  store i8 0, ptr %5, align 8, !tbaa !50
  %6 = tail call noalias noundef nonnull dereferenceable(112) ptr @_Znwm(i64 noundef 112) #18
  invoke void @_ZN5BlockC1EP8Variable(ptr noundef nonnull align 8 dereferenceable(112) %6, ptr noundef null)
          to label %7 unwind label %15

7:                                                ; preds = %4
  store ptr %6, ptr %1, align 8, !tbaa !61
  %8 = load ptr, ptr %3, align 8, !tbaa !47
  %9 = getelementptr inbounds nuw i8, ptr %3, i64 8
  %10 = load ptr, ptr %9, align 8, !tbaa !48
  tail call void @_ZN5Block18populateSplitBlockEPS_P8VariableS2_(ptr noundef nonnull align 8 dereferenceable(112) %0, ptr noundef nonnull %6, ptr noundef %8, ptr noundef %10)
  %11 = tail call noalias noundef nonnull dereferenceable(112) ptr @_Znwm(i64 noundef 112) #18
  invoke void @_ZN5BlockC1EP8Variable(ptr noundef nonnull align 8 dereferenceable(112) %11, ptr noundef null)
          to label %12 unwind label %17

12:                                               ; preds = %7
  store ptr %11, ptr %2, align 8, !tbaa !61
  %13 = load ptr, ptr %9, align 8, !tbaa !48
  %14 = load ptr, ptr %3, align 8, !tbaa !47
  tail call void @_ZN5Block18populateSplitBlockEPS_P8VariableS2_(ptr noundef nonnull align 8 dereferenceable(112) %0, ptr noundef nonnull %11, ptr noundef %13, ptr noundef %14)
  ret void

15:                                               ; preds = %4
  %16 = landingpad { ptr, i32 }
          cleanup
  br label %19

17:                                               ; preds = %7
  %18 = landingpad { ptr, i32 }
          cleanup
  br label %19

19:                                               ; preds = %17, %15
  %.sink = phi ptr [ %11, %17 ], [ %6, %15 ]
  %.pn = phi { ptr, i32 } [ %18, %17 ], [ %16, %15 ]
  tail call void @_ZdlPvm(ptr noundef nonnull %.sink, i64 noundef 112) #19
  resume { ptr, i32 } %.pn
}